target datalayout = "e-m:e-p270:32:32-p271:32:32-p272:64:64-i64:64-i128:128-f80:128-n8:16:32:64-S128"
target triple = "x86_64-pc-linux-gnu"

%struct.PageHeaderData = type { %struct.PageXLogRecPtr, i16, i16, i16, i16, i16, i16, i32, [0 x %struct.ItemIdData] }
%struct.PageXLogRecPtr = type { i32, i32 }
%struct.ItemIdData = type { i32 }

@LocalBufferBlockPointers = external global ptr, align 8
@BufferBlocks = external global ptr, align 8

; Function Attrs: inlinehint nounwind uwtable
define internal ptr @BufferGetBlock(i32 noundef %0) #2 {
  %2 = alloca ptr, align 8
  %3 = alloca i32, align 4
  store i32 %0, ptr %3, align 4
  %4 = load i32, ptr %3, align 4
  %5 = icmp slt i32 %4, 0
  br i1 %5, label %6, label %14

6:                                                ; preds = %1
  %7 = load ptr, ptr @LocalBufferBlockPointers, align 8
  %8 = load i32, ptr %3, align 4
  %9 = sub i32 0, %8
  %10 = sub i32 %9, 1
  %11 = sext i32 %10 to i64
  %12 = getelementptr inbounds ptr, ptr %7, i64 %11
  %13 = load ptr, ptr %12, align 8
  store ptr %13, ptr %2, align 8
  br label %21

14:                                               ; preds = %1
  %15 = load ptr, ptr @BufferBlocks, align 8
  %16 = load i32, ptr %3, align 4
  %17 = sub i32 %16, 1
  %18 = sext i32 %17 to i64
  %19 = mul i64 %18, 8192
  %20 = getelementptr inbounds nuw i8, ptr %15, i64 %19
  store ptr %20, ptr %2, align 8
  br label %21

21:                                               ; preds = %14, %6
  %22 = load ptr, ptr %2, align 8
  ret ptr %22
}

; Function Attrs: inlinehint nounwind uwtable
define internal zeroext i1 @PageIsAllVisible(ptr noundef %0) #2 {
  %2 = alloca ptr, align 8
  store ptr %0, ptr %2, align 8
  %3 = load ptr, ptr %2, align 8
  %4 = getelementptr inbounds nuw %struct.PageHeaderData, ptr %3, i32 0, i32 2
  %5 = load i16, ptr %4, align 2
  %6 = zext i16 %5 to i32
  %7 = and i32 %6, 4
  %8 = icmp ne i32 %7, 0
  ret i1 %8
}

; Function Attrs: inlinehint nounwind uwtable
define internal ptr @BufferGetPage(i32 noundef %0) #2 {
  %2 = alloca i32, align 4
  store i32 %0, ptr %2, align 4
  %3 = load i32, ptr %2, align 4
  %4 = call ptr @BufferGetBlock(i32 noundef %3)
  ret ptr %4
}

; Function Attrs: inlinehint nounwind uwtable
define internal zeroext i1 @BufferIsValid(i32 noundef %0) #2 {
  %2 = alloca i32, align 4
  store i32 %0, ptr %2, align 4
  %3 = load i32, ptr %2, align 4
  %4 = icmp ne i32 %3, 0
  ret i1 %4
}

; Function Attrs: nounwind uwtable
define internal zeroext i1 @GetVisibilityMapPins(ptr noundef %0, i32 noundef %1, i32 noundef %2, i32 noundef %3, i32 noundef %4, ptr noundef %5, ptr noundef %6) #0 {
  %8 = alloca ptr, align 8
  %9 = alloca i32, align 4
  %10 = alloca i32, align 4
  %11 = alloca i32, align 4
  %12 = alloca i32, align 4
  %13 = alloca ptr, align 8
  %14 = alloca ptr, align 8
  %15 = alloca i8, align 1
  %16 = alloca i8, align 1
  %17 = alloca i8, align 1
  %18 = alloca i32, align 4
  %19 = alloca ptr, align 8
  %20 = alloca i32, align 4
  store ptr %0, ptr %8, align 8
  store i32 %1, ptr %9, align 4
  store i32 %2, ptr %10, align 4
  store i32 %3, ptr %11, align 4
  store i32 %4, ptr %12, align 4
  store ptr %5, ptr %13, align 8
  store ptr %6, ptr %14, align 8
  call void @llvm.lifetime.start.p0(i64 1, ptr %15) #8
  call void @llvm.lifetime.start.p0(i64 1, ptr %16) #8
  call void @llvm.lifetime.start.p0(i64 1, ptr %17) #8
  store i8 0, ptr %17, align 1
  %21 = load i32, ptr %9, align 4
  %22 = call zeroext i1 @BufferIsValid(i32 noundef %21)
  br i1 %22, label %23, label %30

23:                                               ; preds = %7
  %24 = load i32, ptr %10, align 4
  %25 = call zeroext i1 @BufferIsValid(i32 noundef %24)
  br i1 %25, label %26, label %40

26:                                               ; preds = %23
  %27 = load i32, ptr %11, align 4
  %28 = load i32, ptr %12, align 4
  %29 = icmp ugt i32 %27, %28
  br i1 %29, label %30, label %40

30:                                               ; preds = %26, %7
  call void @llvm.lifetime.start.p0(i64 4, ptr %18) #8
  %31 = load i32, ptr %9, align 4
  store i32 %31, ptr %18, align 4
  call void @llvm.lifetime.start.p0(i64 8, ptr %19) #8
  %32 = load ptr, ptr %13, align 8
  store ptr %32, ptr %19, align 8
  call void @llvm.lifetime.start.p0(i64 4, ptr %20) #8
  %33 = load i32, ptr %11, align 4
  store i32 %33, ptr %20, align 4
  %34 = load i32, ptr %10, align 4
  store i32 %34, ptr %9, align 4
  %35 = load ptr, ptr %14, align 8
  store ptr %35, ptr %13, align 8
  %36 = load i32, ptr %12, align 4
  store i32 %36, ptr %11, align 4
  %37 = load i32, ptr %18, align 4
  store i32 %37, ptr %10, align 4
  %38 = load ptr, ptr %19, align 8
  store ptr %38, ptr %14, align 8
  %39 = load i32, ptr %20, align 4
  store i32 %39, ptr %12, align 4
  call void @llvm.lifetime.end.p0(i64 4, ptr %20) #8
  call void @llvm.lifetime.end.p0(i64 8, ptr %19) #8
  call void @llvm.lifetime.end.p0(i64 4, ptr %18) #8
  br label %40

40:                                               ; preds = %30, %26, %23
  br label %41

41:                                               ; preds = %124, %40
  br label %42

42:                                               ; preds = %41
  %43 = load i32, ptr %9, align 4
  %44 = call ptr @BufferGetPage(i32 noundef %43)
  %45 = call zeroext i1 @PageIsAllVisible(ptr noundef %44)
  br i1 %45, label %46, label %52

46:                                               ; preds = %42
  %47 = load i32, ptr %11, align 4
  %48 = load ptr, ptr %13, align 8
  %49 = load i32, ptr %48, align 4
  %50 = call zeroext i1 @visibilitymap_pin_ok(i32 noundef %47, i32 noundef %49)
  %51 = xor i1 %50, true
  br label %52

52:                                               ; preds = %46, %42
  %53 = phi i1 [ false, %42 ], [ %51, %46 ]
  %54 = zext i1 %53 to i8
  store i8 %54, ptr %15, align 1
  %55 = load i32, ptr %10, align 4
  %56 = icmp ne i32 %55, 0
  br i1 %56, label %57, label %67

57:                                               ; preds = %52
  %58 = load i32, ptr %10, align 4
  %59 = call ptr @BufferGetPage(i32 noundef %58)
  %60 = call zeroext i1 @PageIsAllVisible(ptr noundef %59)
  br i1 %60, label %61, label %67

61:                                               ; preds = %57
  %62 = load i32, ptr %12, align 4
  %63 = load ptr, ptr %14, align 8
  %64 = load i32, ptr %63, align 4
  %65 = call zeroext i1 @visibilitymap_pin_ok(i32 noundef %62, i32 noundef %64)
  %66 = xor i1 %65, true
  br label %67

67:                                               ; preds = %61, %57, %52
  %68 = phi i1 [ false, %57 ], [ false, %52 ], [ %66, %61 ]
  %69 = zext i1 %68 to i8
  store i8 %69, ptr %16, align 1
  %70 = load i8, ptr %15, align 1, !range !4, !noundef !5
  %71 = trunc i8 %70 to i1
  br i1 %71, label %76, label %72

72:                                               ; preds = %67
  %73 = load i8, ptr %16, align 1, !range !4, !noundef !5
  %74 = trunc i8 %73 to i1
  br i1 %74, label %76, label %75

75:                                               ; preds = %72
  br label %125

76:                                               ; preds = %72, %67
  store i8 1, ptr %17, align 1
  %77 = load i32, ptr %9, align 4
  call void @LockBuffer(i32 noundef %77, i32 noundef 0)
  %78 = load i32, ptr %10, align 4
  %79 = icmp ne i32 %78, 0
  br i1 %79, label %80, label %86

80:                                               ; preds = %76
  %81 = load i32, ptr %10, align 4
  %82 = load i32, ptr %9, align 4
  %83 = icmp ne i32 %81, %82
  br i1 %83, label %84, label %86

84:                                               ; preds = %80
  %85 = load i32, ptr %10, align 4
  call void @LockBuffer(i32 noundef %85, i32 noundef 0)
  br label %86

86:                                               ; preds = %84, %80, %76
  %87 = load i8, ptr %15, align 1, !range !4, !noundef !5
  %88 = trunc i8 %87 to i1
  br i1 %88, label %89, label %93

89:                                               ; preds = %86
  %90 = load ptr, ptr %8, align 8
  %91 = load i32, ptr %11, align 4
  %92 = load ptr, ptr %13, align 8
  call void @visibilitymap_pin(ptr noundef %90, i32 noundef %91, ptr noundef %92)
  br label %93

93:                                               ; preds = %89, %86
  %94 = load i8, ptr %16, align 1, !range !4, !noundef !5
  %95 = trunc i8 %94 to i1
  br i1 %95, label %96, label %100

96:                                               ; preds = %93
  %97 = load ptr, ptr %8, align 8
  %98 = load i32, ptr %12, align 4
  %99 = load ptr, ptr %14, align 8
  call void @visibilitymap_pin(ptr noundef %97, i32 noundef %98, ptr noundef %99)
  br label %100

100:                                              ; preds = %96, %93
  %101 = load i32, ptr %9, align 4
  call void @LockBuffer(i32 noundef %101, i32 noundef 2)
  %102 = load i32, ptr %10, align 4
  %103 = icmp ne i32 %102, 0
  br i1 %103, label %104, label %110

104:                                              ; preds = %100
  %105 = load i32, ptr %10, align 4
  %106 = load i32, ptr %9, align 4
  %107 = icmp ne i32 %105, %106
  br i1 %107, label %108, label %110

108:                                              ; preds = %104
  %109 = load i32, ptr %10, align 4
  call void @LockBuffer(i32 noundef %109, i32 noundef 2)
  br label %110

110:                                              ; preds = %108, %104, %100
  %111 = load i32, ptr %10, align 4
  %112 = icmp eq i32 %111, 0
  br i1 %112, label %123, label %113

113:                                              ; preds = %110
  %114 = load i32, ptr %9, align 4
  %115 = load i32, ptr %10, align 4
  %116 = icmp eq i32 %114, %115
  br i1 %116, label %123, label %117

117:                                              ; preds = %113
  %118 = load i8, ptr %15, align 1, !range !4, !noundef !5
  %119 = trunc i8 %118 to i1
  br i1 %119, label %120, label %124

120:                                              ; preds = %117
  %121 = load i8, ptr %16, align 1, !range !4, !noundef !5
  %122 = trunc i8 %121 to i1
  br i1 %122, label %123, label %124

123:                                              ; preds = %120, %113, %110
  br label %125

124:                                              ; preds = %120, %117
  br label %41

125:                                              ; preds = %123, %75
  %126 = load i8, ptr %17, align 1, !range !4, !noundef !5
  %127 = trunc i8 %126 to i1
  call void @llvm.lifetime.end.p0(i64 1, ptr %17) #8
  call void @llvm.lifetime.end.p0(i64 1, ptr %16) #8
  call void @llvm.lifetime.end.p0(i64 1, ptr %15) #8
  ret i1 %127
}