; Function Attrs: nounwind uwtable
define internal fastcc noundef zeroext i1 @GetVisibilityMapPins(ptr noundef %0, i32 noundef %1, i32 noundef %2, i32 noundef %3, i32 noundef %4, ptr noundef %5, ptr noundef %6) unnamed_addr #0 {
  %.not64 = icmp eq i32 %1, 0
  br i1 %.not64, label %11, label %8

8:                                                ; preds = %7
  %9 = icmp ne i32 %2, 0
  %10 = icmp ugt i32 %3, %4
  %or.cond = and i1 %9, %10
  br i1 %or.cond, label %11, label %12

11:                                               ; preds = %8, %7
  br label %12

12:                                               ; preds = %11, %8
  %.050 = phi ptr [ %5, %11 ], [ %6, %8 ]
  %.049 = phi ptr [ %6, %11 ], [ %5, %8 ]
  %.048 = phi i32 [ %3, %11 ], [ %4, %8 ]
  %.046 = phi i32 [ %4, %11 ], [ %3, %8 ]
  %.045 = phi i32 [ %1, %11 ], [ %2, %8 ]
  %.0 = phi i32 [ %2, %11 ], [ %1, %8 ]
  %13 = icmp slt i32 %.0, 0
  %14 = add nsw i32 %.0, -1
  %15 = sext i32 %14 to i64
  %16 = shl nsw i64 %15, 13
  %17 = xor i32 %.0, -1
  %18 = zext nneg i32 %17 to i64
  %.not = icmp eq i32 %.045, 0
  %19 = icmp slt i32 %.045, 0
  %20 = add nsw i32 %.045, -1
  %21 = zext nneg i32 %20 to i64
  %22 = shl nuw nsw i64 %21, 13
  %23 = xor i32 %.045, -1
  %24 = zext nneg i32 %23 to i64
  %.not53 = icmp eq i32 %1, %2
  %or.cond55 = or i1 %.not53, %.not
  br i1 %.not, label %.split.us, label %.split

.split.us:                                        ; preds = %12
  br i1 %13, label %BufferGetPage.exit.us.us.us, label %BufferGetPage.exit.us.us68

BufferGetPage.exit.us.us.us:                      ; preds = %.split.us
  %25 = load ptr, ptr @LocalBufferBlockPointers, align 8
  %26 = getelementptr inbounds nuw ptr, ptr %25, i64 %18
  %27 = load ptr, ptr %26, align 8
  %28 = getelementptr i8, ptr %27, i64 10
  %.val61.us.us.us = load i16, ptr %28, align 2
  %29 = and i16 %.val61.us.us.us, 4
  %.not65.us.us.us = icmp eq i16 %29, 0
  br i1 %.not65.us.us.us, label %.thread, label %30

30:                                               ; preds = %BufferGetPage.exit.us.us.us
  %31 = load i32, ptr %.049, align 4
  %32 = tail call zeroext i1 @visibilitymap_pin_ok(i32 noundef %.046, i32 noundef %31) #8
  br i1 %32, label %.thread, label %.thread.sink.split

BufferGetPage.exit.us.us68:                       ; preds = %.split.us
  %33 = load ptr, ptr @BufferBlocks, align 8
  %34 = getelementptr inbounds nuw i8, ptr %33, i64 %16
  %35 = getelementptr i8, ptr %34, i64 10
  %.val61.us.us70 = load i16, ptr %35, align 2
  %36 = and i16 %.val61.us.us70, 4
  %.not65.us.us71 = icmp eq i16 %36, 0
  br i1 %.not65.us.us71, label %.thread, label %37

37:                                               ; preds = %BufferGetPage.exit.us.us68
  %38 = load i32, ptr %.049, align 4
  %39 = tail call zeroext i1 @visibilitymap_pin_ok(i32 noundef %.046, i32 noundef %38) #8
  br i1 %39, label %.thread, label %.thread.sink.split

.split:                                           ; preds = %12, %77
  %.047 = phi i1 [ true, %77 ], [ false, %12 ]
  br i1 %13, label %40, label %44

40:                                               ; preds = %.split
  %41 = load ptr, ptr @LocalBufferBlockPointers, align 8
  %42 = getelementptr inbounds nuw ptr, ptr %41, i64 %18
  %43 = load ptr, ptr %42, align 8
  br label %BufferGetPage.exit

44:                                               ; preds = %.split
  %45 = load ptr, ptr @BufferBlocks, align 8
  %46 = getelementptr inbounds nuw i8, ptr %45, i64 %16
  br label %BufferGetPage.exit

BufferGetPage.exit:                               ; preds = %40, %44
  %.0.i.i = phi ptr [ %43, %40 ], [ %46, %44 ]
  %47 = getelementptr i8, ptr %.0.i.i, i64 10
  %.val61 = load i16, ptr %47, align 2
  %48 = and i16 %.val61, 4
  %.not65 = icmp eq i16 %48, 0
  br i1 %.not65, label %53, label %49

49:                                               ; preds = %BufferGetPage.exit
  %50 = load i32, ptr %.049, align 4
  %51 = tail call zeroext i1 @visibilitymap_pin_ok(i32 noundef %.046, i32 noundef %50) #8
  %52 = xor i1 %51, true
  br label %53

53:                                               ; preds = %49, %BufferGetPage.exit
  %54 = phi i1 [ false, %BufferGetPage.exit ], [ %52, %49 ]
  br i1 %19, label %55, label %59

55:                                               ; preds = %53
  %56 = load ptr, ptr @LocalBufferBlockPointers, align 8
  %57 = getelementptr inbounds nuw ptr, ptr %56, i64 %24
  %58 = load ptr, ptr %57, align 8
  br label %BufferGetPage.exit63

59:                                               ; preds = %53
  %60 = load ptr, ptr @BufferBlocks, align 8
  %61 = getelementptr inbounds nuw i8, ptr %60, i64 %22
  br label %BufferGetPage.exit63

BufferGetPage.exit63:                             ; preds = %55, %59
  %.0.i.i62 = phi ptr [ %58, %55 ], [ %61, %59 ]
  %62 = getelementptr i8, ptr %.0.i.i62, i64 10
  %.val = load i16, ptr %62, align 2
  %63 = and i16 %.val, 4
  %.not66 = icmp eq i16 %63, 0
  br i1 %.not66, label %68, label %64

64:                                               ; preds = %BufferGetPage.exit63
  %65 = load i32, ptr %.050, align 4
  %66 = tail call zeroext i1 @visibilitymap_pin_ok(i32 noundef %.048, i32 noundef %65) #8
  %67 = xor i1 %66, true
  br label %68

68:                                               ; preds = %64, %BufferGetPage.exit63
  %69 = phi i1 [ false, %BufferGetPage.exit63 ], [ %67, %64 ]
  %brmerge = select i1 %54, i1 true, i1 %69
  br i1 %brmerge, label %70, label %.thread

70:                                               ; preds = %68
  tail call void @LockBuffer(i32 noundef %.0, i32 noundef 0) #8
  br i1 %or.cond55, label %72, label %71

71:                                               ; preds = %70
  tail call void @LockBuffer(i32 noundef %.045, i32 noundef 0) #8
  br label %72

72:                                               ; preds = %71, %70
  br i1 %54, label %73, label %74

73:                                               ; preds = %72
  tail call void @visibilitymap_pin(ptr noundef %0, i32 noundef %.046, ptr noundef %.049) #8
  br label %74

74:                                               ; preds = %73, %72
  br i1 %69, label %75, label %76

75:                                               ; preds = %74
  tail call void @visibilitymap_pin(ptr noundef %0, i32 noundef %.048, ptr noundef %.050) #8
  br label %76

76:                                               ; preds = %75, %74
  tail call void @LockBuffer(i32 noundef %.0, i32 noundef 2) #8
  br i1 %or.cond55, label %.thread, label %77

77:                                               ; preds = %76
  tail call void @LockBuffer(i32 noundef %.045, i32 noundef 2) #8
  %78 = select i1 %54, i1 %69, i1 false
  br i1 %78, label %.thread, label %.split

.thread.sink.split:                               ; preds = %37, %30
  tail call void @LockBuffer(i32 noundef %.0, i32 noundef 0) #8
  tail call void @visibilitymap_pin(ptr noundef %0, i32 noundef %.046, ptr noundef nonnull %.049) #8
  tail call void @LockBuffer(i32 noundef %.0, i32 noundef 2) #8
  br label %.thread

.thread:                                          ; preds = %68, %77, %76, %.thread.sink.split, %BufferGetPage.exit.us.us.us, %BufferGetPage.exit.us.us68, %30, %37
  %.us-phi = phi i1 [ false, %30 ], [ false, %37 ], [ false, %BufferGetPage.exit.us.us68 ], [ false, %BufferGetPage.exit.us.us.us ], [ true, %.thread.sink.split ], [ %.047, %68 ], [ true, %77 ], [ true, %76 ]
  ret i1 %.us-phi
}